target datalayout = "e-m:e-p270:32:32-p271:32:32-p272:64:64-i64:64-i128:128-f80:128-n8:16:32:64-S128"
target triple = "x86_64-unknown-linux-gnu"

%"class.std::basic_ostream" = type { ptr, %"class.std::basic_ios" }
%"class.std::basic_ios" = type { %"class.std::ios_base", ptr, i8, i8, ptr, ptr, ptr, ptr }
%"class.std::ios_base" = type { ptr, i64, i64, i32, i32, i32, ptr, %"struct.std::ios_base::_Words", [8 x %"struct.std::ios_base::_Words"], i32, ptr, %"class.std::locale" }
%"struct.std::ios_base::_Words" = type { ptr, i64 }
%"class.std::locale" = type { ptr }
%"class.std::__cxx11::basic_string" = type { %"struct.std::__cxx11::basic_string<char>::_Alloc_hider", i64, %union.anon }
%"struct.std::__cxx11::basic_string<char>::_Alloc_hider" = type { ptr }
%union.anon = type { i64, [8 x i8] }
%"struct.std::atomic" = type { %"struct.std::__atomic_base" }
%"struct.std::__atomic_base" = type { i64 }
%"class.tf::Task" = type { ptr }
%class.anon.70 = type { ptr }
%"class.std::shared_ptr" = type { %"class.std::__shared_ptr" }
%"class.std::__shared_ptr" = type { ptr, %"class.std::__shared_count" }
%"class.std::__shared_count" = type { ptr }
%"class.tf::Node" = type { ptr, %"class.std::__cxx11::basic_string", i32, ptr, ptr, ptr, %"class.tf::SmallVector", %"class.tf::SmallVector", %"struct.std::atomic.90", %"struct.std::atomic", %"class.std::unique_ptr", %"class.std::variant" }
%"class.tf::SmallVector" = type { %"class.tf::SmallVectorImpl", %"struct.tf::SmallVectorStorage" }
%"class.tf::SmallVectorImpl" = type { %"class.tf::SmallVectorTemplateBase" }
%"class.tf::SmallVectorTemplateBase" = type { %"class.tf::SmallVectorTemplateCommon" }
%"class.tf::SmallVectorTemplateCommon" = type { %"class.tf::SmallVectorBase", %"struct.tf::SmallVectorTemplateCommon<tf::Node *>::AlignedUnionType" }
%"class.tf::SmallVectorBase" = type { ptr, ptr, ptr }
%"struct.tf::SmallVectorTemplateCommon<tf::Node *>::AlignedUnionType" = type { [8 x i8] }
%"struct.tf::SmallVectorStorage" = type { [1 x %"struct.tf::SmallVectorTemplateCommon<tf::Node *>::AlignedUnionType"] }
%"struct.std::atomic.90" = type { %"struct.std::__atomic_base.91" }
%"struct.std::__atomic_base.91" = type { i32 }
%"class.std::unique_ptr" = type { %"struct.std::__uniq_ptr_data" }
%"struct.std::__uniq_ptr_data" = type { %"class.std::__uniq_ptr_impl" }
%"class.std::__uniq_ptr_impl" = type { %"class.std::tuple.92" }
%"class.std::tuple.92" = type { %"struct.std::_Tuple_impl.93" }
%"struct.std::_Tuple_impl.93" = type { %"struct.std::_Head_base.96" }
%"struct.std::_Head_base.96" = type { ptr }
%"class.std::variant" = type { %"struct.std::__detail::__variant::_Variant_base.base", [7 x i8] }
%"struct.std::__detail::__variant::_Variant_base.base" = type { %"struct.std::__detail::__variant::_Move_assign_base.base" }
%"struct.std::__detail::__variant::_Move_assign_base.base" = type { %"struct.std::__detail::__variant::_Copy_assign_base.base" }
%"struct.std::__detail::__variant::_Copy_assign_base.base" = type { %"struct.std::__detail::__variant::_Move_ctor_base.base" }
%"struct.std::__detail::__variant::_Move_ctor_base.base" = type { %"struct.std::__detail::__variant::_Copy_ctor_base.base" }
%"struct.std::__detail::__variant::_Copy_ctor_base.base" = type { %"struct.std::__detail::__variant::_Variant_storage.base" }
%"struct.std::__detail::__variant::_Variant_storage.base" = type <{ %"union.std::__detail::__variant::_Variadic_union", i8 }>
%"union.std::__detail::__variant::_Variadic_union" = type { %"union.std::__detail::__variant::_Variadic_union.97" }
%"union.std::__detail::__variant::_Variadic_union.97" = type { %"union.std::__detail::__variant::_Variadic_union.99" }
%"union.std::__detail::__variant::_Variadic_union.99" = type { %"union.std::__detail::__variant::_Variadic_union.102" }
%"union.std::__detail::__variant::_Variadic_union.102" = type { %"union.std::__detail::__variant::_Variadic_union.105" }
%"union.std::__detail::__variant::_Variadic_union.105" = type { %"union.std::__detail::__variant::_Variadic_union.108" }
%"union.std::__detail::__variant::_Variadic_union.108" = type { %"struct.std::__detail::__variant::_Uninitialized.109", [48 x i8] }
%"struct.std::__detail::__variant::_Uninitialized.109" = type { %"struct.tf::Node::Module" }
%"struct.tf::Node::Module" = type { ptr }
%"class.std::_Function_base" = type { %"union.std::_Any_data", ptr }
%"union.std::_Any_data" = type { %"union.std::_Nocopy_types" }
%"union.std::_Nocopy_types" = type { { i64, i64 } }
%"class.tf::Topology" = type { ptr, %"class.std::promise", %"class.tf::SmallVector", %"class.std::function.281", %"class.std::function.153", %"struct.std::atomic", %"struct.std::atomic.90", %"class.std::__exception_ptr::exception_ptr" }
%"class.std::promise" = type { %"class.std::shared_ptr", %"class.std::unique_ptr.273" }
%"class.std::unique_ptr.273" = type { %"struct.std::__uniq_ptr_data.274" }
%"struct.std::__uniq_ptr_data.274" = type { %"class.std::__uniq_ptr_impl.275" }
%"class.std::__uniq_ptr_impl.275" = type { %"class.std::tuple.276" }
%"class.std::tuple.276" = type { %"struct.std::_Tuple_impl.277" }
%"struct.std::_Tuple_impl.277" = type { %"struct.std::_Head_base.280" }
%"struct.std::_Head_base.280" = type { ptr }
%"class.std::function.281" = type { %"class.std::_Function_base", ptr }
%"class.std::function.153" = type { %"class.std::_Function_base", ptr }
%"class.std::__exception_ptr::exception_ptr" = type { ptr }
%"class.tf::Runtime" = type { ptr, ptr, ptr }

@_ZSt4cout = external global %"class.std::basic_ostream", align 8
@.str.61 = private unnamed_addr constant [3 x i8] c"B\0A\00", align 1

; Function Attrs: mustprogress nounwind uwtable
define linkonce_odr dso_local noundef i32 @_ZStanSt12memory_orderSt23__memory_order_modifier(i32 noundef %__m, i32 noundef %__mod) #5 comdat {
entry:
  %__m.addr = alloca i32, align 4
  %__mod.addr = alloca i32, align 4
  store i32 %__m, ptr %__m.addr, align 4
  store i32 %__mod, ptr %__mod.addr, align 4
  %0 = load i32, ptr %__m.addr, align 4
  %1 = load i32, ptr %__mod.addr, align 4
  %and = and i32 %0, %1
  ret i32 %and
}

; Function Attrs: mustprogress uwtable
define linkonce_odr dso_local void @_ZN2tf7Runtime8scheduleENS_4TaskE(ptr noundef nonnull align 8 dereferenceable(24) %this, ptr noundef %task) #4 comdat align 2 {
entry:
  %this.addr.i5 = alloca ptr, align 8
  %__i.addr.i6 = alloca i64, align 8
  %__m.addr.i7 = alloca i32, align 4
  %.atomictmp.i8 = alloca i64, align 8
  %atomic-temp.i = alloca i64, align 8
  %this.addr.i = alloca ptr, align 8
  %__i.addr.i = alloca i64, align 8
  %__m.addr.i = alloca i32, align 4
  %__b.i = alloca i32, align 4
  %.atomictmp.i = alloca i64, align 8
  %this.addr = alloca ptr, align 8
  %task.indirect_addr = alloca ptr, align 8
  %node = alloca ptr, align 8
  %j = alloca ptr, align 8
  store ptr %this, ptr %this.addr, align 8
  store ptr %task, ptr %task.indirect_addr, align 8
  %this1 = load ptr, ptr %this.addr, align 8
  %_node = getelementptr inbounds %"class.tf::Task", ptr %task, i32 0, i32 0
  %0 = load ptr, ptr %_node, align 8
  store ptr %0, ptr %node, align 8
  %1 = load ptr, ptr %node, align 8
  %_join_counter = getelementptr inbounds %"class.tf::Node", ptr %1, i32 0, i32 9
  store ptr %_join_counter, ptr %this.addr.i, align 8
  store i64 0, ptr %__i.addr.i, align 8
  store i32 0, ptr %__m.addr.i, align 4
  %this1.i = load ptr, ptr %this.addr.i, align 8
  %2 = load i32, ptr %__m.addr.i, align 4
  %call.i = call noundef i32 @_ZStanSt12memory_orderSt23__memory_order_modifier(i32 noundef %2, i32 noundef 65535)
  store i32 %call.i, ptr %__b.i, align 4
  %3 = load i32, ptr %__m.addr.i, align 4
  %4 = load i64, ptr %__i.addr.i, align 8
  store i64 %4, ptr %.atomictmp.i, align 8
  switch i32 %3, label %monotonic.i [
    i32 3, label %release.i
    i32 5, label %seqcst.i
  ]

monotonic.i:                                      ; preds = %entry
  %5 = load i64, ptr %.atomictmp.i, align 8
  store atomic i64 %5, ptr %this1.i monotonic, align 8
  br label %_ZNSt13__atomic_baseImE5storeEmSt12memory_order.exit

release.i:                                        ; preds = %entry
  %6 = load i64, ptr %.atomictmp.i, align 8
  store atomic i64 %6, ptr %this1.i release, align 8
  br label %_ZNSt13__atomic_baseImE5storeEmSt12memory_order.exit

seqcst.i:                                         ; preds = %entry
  %7 = load i64, ptr %.atomictmp.i, align 8
  store atomic i64 %7, ptr %this1.i seq_cst, align 8
  br label %_ZNSt13__atomic_baseImE5storeEmSt12memory_order.exit

_ZNSt13__atomic_baseImE5storeEmSt12memory_order.exit: ; preds = %seqcst.i, %release.i, %monotonic.i
  %8 = load ptr, ptr %node, align 8
  %_parent = getelementptr inbounds %"class.tf::Node", ptr %8, i32 0, i32 4
  %9 = load ptr, ptr %_parent, align 8
  %tobool = icmp ne ptr %9, null
  br i1 %tobool, label %cond.true, label %cond.false

cond.true:                                        ; preds = %_ZNSt13__atomic_baseImE5storeEmSt12memory_order.exit
  %10 = load ptr, ptr %node, align 8
  %_parent2 = getelementptr inbounds %"class.tf::Node", ptr %10, i32 0, i32 4
  %11 = load ptr, ptr %_parent2, align 8
  %_join_counter3 = getelementptr inbounds %"class.tf::Node", ptr %11, i32 0, i32 9
  br label %cond.end

cond.false:                                       ; preds = %_ZNSt13__atomic_baseImE5storeEmSt12memory_order.exit
  %12 = load ptr, ptr %node, align 8
  %_topology = getelementptr inbounds %"class.tf::Node", ptr %12, i32 0, i32 3
  %13 = load ptr, ptr %_topology, align 8
  %_join_counter4 = getelementptr inbounds %"class.tf::Topology", ptr %13, i32 0, i32 5
  br label %cond.end

cond.end:                                         ; preds = %cond.false, %cond.true
  %cond-lvalue = phi ptr [ %_join_counter3, %cond.true ], [ %_join_counter4, %cond.false ]
  store ptr %cond-lvalue, ptr %j, align 8
  %14 = load ptr, ptr %j, align 8
  store ptr %14, ptr %this.addr.i5, align 8
  store i64 1, ptr %__i.addr.i6, align 8
  store i32 0, ptr %__m.addr.i7, align 4
  %this1.i9 = load ptr, ptr %this.addr.i5, align 8
  %15 = load i32, ptr %__m.addr.i7, align 4
  %16 = load i64, ptr %__i.addr.i6, align 8
  store i64 %16, ptr %.atomictmp.i8, align 8
  switch i32 %15, label %monotonic.i12 [
    i32 1, label %acquire.i
    i32 2, label %acquire.i
    i32 3, label %release.i11
    i32 4, label %acqrel.i
    i32 5, label %seqcst.i10
  ]

monotonic.i12:                                    ; preds = %cond.end
  %17 = load i64, ptr %.atomictmp.i8, align 8
  %18 = atomicrmw add ptr %this1.i9, i64 %17 monotonic, align 8
  store i64 %18, ptr %atomic-temp.i, align 8
  br label %_ZNSt13__atomic_baseImE9fetch_addEmSt12memory_order.exit

acquire.i:                                        ; preds = %cond.end, %cond.end
  %19 = load i64, ptr %.atomictmp.i8, align 8
  %20 = atomicrmw add ptr %this1.i9, i64 %19 acquire, align 8
  store i64 %20, ptr %atomic-temp.i, align 8
  br label %_ZNSt13__atomic_baseImE9fetch_addEmSt12memory_order.exit

release.i11:                                      ; preds = %cond.end
  %21 = load i64, ptr %.atomictmp.i8, align 8
  %22 = atomicrmw add ptr %this1.i9, i64 %21 release, align 8
  store i64 %22, ptr %atomic-temp.i, align 8
  br label %_ZNSt13__atomic_baseImE9fetch_addEmSt12memory_order.exit

acqrel.i:                                         ; preds = %cond.end
  %23 = load i64, ptr %.atomictmp.i8, align 8
  %24 = atomicrmw add ptr %this1.i9, i64 %23 acq_rel, align 8
  store i64 %24, ptr %atomic-temp.i, align 8
  br label %_ZNSt13__atomic_baseImE9fetch_addEmSt12memory_order.exit

seqcst.i10:                                       ; preds = %cond.end
  %25 = load i64, ptr %.atomictmp.i8, align 8
  %26 = atomicrmw add ptr %this1.i9, i64 %25 seq_cst, align 8
  store i64 %26, ptr %atomic-temp.i, align 8
  br label %_ZNSt13__atomic_baseImE9fetch_addEmSt12memory_order.exit

_ZNSt13__atomic_baseImE9fetch_addEmSt12memory_order.exit: ; preds = %seqcst.i10, %acqrel.i, %release.i11, %acquire.i, %monotonic.i12
  %_executor = getelementptr inbounds %"class.tf::Runtime", ptr %this1, i32 0, i32 0
  %27 = load ptr, ptr %_executor, align 8
  %_worker = getelementptr inbounds %"class.tf::Runtime", ptr %this1, i32 0, i32 1
  %28 = load ptr, ptr %_worker, align 8
  %29 = load ptr, ptr %node, align 8
  call void @_ZN2tf8Executor9_scheduleERNS_6WorkerEPNS_4NodeE(ptr noundef nonnull align 128 dereferenceable(1344) %27, ptr noundef nonnull align 128 dereferenceable(1032) %28, ptr noundef %29)
  ret void
}

; Function Attrs: mustprogress nounwind uwtable
define linkonce_odr dso_local void @_ZN2tf4TaskC2ERKS0_(ptr noundef nonnull align 8 dereferenceable(8) %this, ptr noundef nonnull align 8 dereferenceable(8) %rhs) unnamed_addr #5 comdat align 2 {
entry:
  %this.addr = alloca ptr, align 8
  %rhs.addr = alloca ptr, align 8
  store ptr %this, ptr %this.addr, align 8
  store ptr %rhs, ptr %rhs.addr, align 8
  %this1 = load ptr, ptr %this.addr, align 8
  %_node = getelementptr inbounds %"class.tf::Task", ptr %this1, i32 0, i32 0
  %0 = load ptr, ptr %rhs.addr, align 8
  %_node2 = getelementptr inbounds %"class.tf::Task", ptr %0, i32 0, i32 0
  %1 = load ptr, ptr %_node2, align 8
  store ptr %1, ptr %_node, align 8
  ret void
}

; Function Attrs: mustprogress uwtable
define internal void @"_ZZ4mainENK3$_1clERN2tf7RuntimeE"(ptr noundef nonnull align 8 dereferenceable(8) %this, ptr noundef nonnull align 8 dereferenceable(24) %rt) #4 align 2 {
entry:
  %this.addr = alloca ptr, align 8
  %rt.addr = alloca ptr, align 8
  %agg.tmp = alloca %"class.tf::Task", align 8
  store ptr %this, ptr %this.addr, align 8
  store ptr %rt, ptr %rt.addr, align 8
  %this1 = load ptr, ptr %this.addr, align 8
  %call = call noundef nonnull align 8 dereferenceable(8) ptr @_ZStlsISt11char_traitsIcEERSt13basic_ostreamIcT_ES5_PKc(ptr noundef nonnull align 8 dereferenceable(8) @_ZSt4cout, ptr noundef @.str.61)
  %0 = load ptr, ptr %rt.addr, align 8
  %1 = getelementptr inbounds %class.anon.70, ptr %this1, i32 0, i32 0
  %2 = load ptr, ptr %1, align 8
  call void @_ZN2tf4TaskC2ERKS0_(ptr noundef nonnull align 8 dereferenceable(8) %agg.tmp, ptr noundef nonnull align 8 dereferenceable(8) %2)
  call void @_ZN2tf7Runtime8scheduleENS_4TaskE(ptr noundef nonnull align 8 dereferenceable(24) %0, ptr noundef %agg.tmp)
  ret void
}

; Function Attrs: mustprogress nounwind uwtable
define linkonce_odr dso_local noundef ptr @_ZNKSt9_Any_data9_M_accessEv(ptr noundef nonnull align 8 dereferenceable(16) %this) #5 comdat align 2 {
entry:
  %this.addr = alloca ptr, align 8
  store ptr %this, ptr %this.addr, align 8
  %this1 = load ptr, ptr %this.addr, align 8
  %arrayidx = getelementptr inbounds [16 x i8], ptr %this1, i64 0, i64 0
  ret ptr %arrayidx
}

; Function Attrs: mustprogress uwtable
define internal void @"_ZSt13__invoke_implIvRZ4mainE3$_1JRN2tf7RuntimeEEET_St14__invoke_otherOT0_DpOT1_"(ptr noundef nonnull align 8 dereferenceable(8) %__f, ptr noundef nonnull align 8 dereferenceable(24) %__args) #4 {
entry:
  %__f.addr = alloca ptr, align 8
  %__args.addr = alloca ptr, align 8
  store ptr %__f, ptr %__f.addr, align 8
  store ptr %__args, ptr %__args.addr, align 8
  %0 = load ptr, ptr %__f.addr, align 8
  %1 = load ptr, ptr %__args.addr, align 8
  call void @"_ZZ4mainENK3$_1clERN2tf7RuntimeE"(ptr noundef nonnull align 8 dereferenceable(8) %0, ptr noundef nonnull align 8 dereferenceable(24) %1)
  ret void
}

; Function Attrs: mustprogress nounwind uwtable
define internal noundef nonnull align 8 dereferenceable(8) ptr @"_ZNKSt9_Any_data9_M_accessIZ4mainE3$_1EERKT_v"(ptr noundef nonnull align 8 dereferenceable(16) %this) #5 align 2 {
entry:
  %this.addr = alloca ptr, align 8
  store ptr %this, ptr %this.addr, align 8
  %this1 = load ptr, ptr %this.addr, align 8
  %call = call noundef ptr @_ZNKSt9_Any_data9_M_accessEv(ptr noundef nonnull align 8 dereferenceable(16) %this1) #3
  ret ptr %call
}

; Function Attrs: mustprogress uwtable
define internal void @"_ZSt10__invoke_rIvRZ4mainE3$_1JRN2tf7RuntimeEEENSt9enable_ifIX16is_invocable_r_vIT_T0_DpT1_EES6_E4typeEOS7_DpOS8_"(ptr noundef nonnull align 8 dereferenceable(8) %__fn, ptr noundef nonnull align 8 dereferenceable(24) %__args) #4 {
entry:
  %__fn.addr = alloca ptr, align 8
  %__args.addr = alloca ptr, align 8
  store ptr %__fn, ptr %__fn.addr, align 8
  store ptr %__args, ptr %__args.addr, align 8
  %0 = load ptr, ptr %__fn.addr, align 8
  %1 = load ptr, ptr %__args.addr, align 8
  call void @"_ZSt13__invoke_implIvRZ4mainE3$_1JRN2tf7RuntimeEEET_St14__invoke_otherOT0_DpOT1_"(ptr noundef nonnull align 8 dereferenceable(8) %0, ptr noundef nonnull align 8 dereferenceable(24) %1)
  ret void
}

; Function Attrs: mustprogress nounwind uwtable
define internal noundef ptr @"_ZNSt14_Function_base13_Base_managerIZ4mainE3$_1E14_M_get_pointerERKSt9_Any_data"(ptr noundef nonnull align 8 dereferenceable(16) %__source) #5 align 2 {
entry:
  %__source.addr = alloca ptr, align 8
  %__f = alloca ptr, align 8
  store ptr %__source, ptr %__source.addr, align 8
  %0 = load ptr, ptr %__source.addr, align 8
  %call = call noundef nonnull align 8 dereferenceable(8) ptr @"_ZNKSt9_Any_data9_M_accessIZ4mainE3$_1EERKT_v"(ptr noundef nonnull align 8 dereferenceable(16) %0) #3
  store ptr %call, ptr %__f, align 8
  %1 = load ptr, ptr %__f, align 8
  ret ptr %1
}

; Function Attrs: mustprogress uwtable
define internal void @"_ZNSt17_Function_handlerIFvRN2tf7RuntimeEEZ4mainE3$_1E9_M_invokeERKSt9_Any_dataS2_"(ptr noundef nonnull align 8 dereferenceable(16) %__functor, ptr noundef nonnull align 8 dereferenceable(24) %__args) #4 align 2 {
entry:
  %__functor.addr = alloca ptr, align 8
  %__args.addr = alloca ptr, align 8
  store ptr %__functor, ptr %__functor.addr, align 8
  store ptr %__args, ptr %__args.addr, align 8
  %0 = load ptr, ptr %__functor.addr, align 8
  %call = call noundef ptr @"_ZNSt14_Function_base13_Base_managerIZ4mainE3$_1E14_M_get_pointerERKSt9_Any_data"(ptr noundef nonnull align 8 dereferenceable(16) %0) #3
  %1 = load ptr, ptr %__args.addr, align 8
  call void @"_ZSt10__invoke_rIvRZ4mainE3$_1JRN2tf7RuntimeEEENSt9enable_ifIX16is_invocable_r_vIT_T0_DpT1_EES6_E4typeEOS7_DpOS8_"(ptr noundef nonnull align 8 dereferenceable(8) %call, ptr noundef nonnull align 8 dereferenceable(24) %1)
  ret void
}