; Function Attrs: mustprogress uwtable
define internal void @"_ZNSt17_Function_handlerIFvRN2tf7RuntimeEEZ4mainE3$_1E9_M_invokeERKSt9_Any_dataS2_"(ptr nocapture noundef nonnull readonly align 8 dereferenceable(16) %__functor, ptr nocapture noundef nonnull readonly align 8 dereferenceable(24) %__args) #6 align 2 {
entry:
  %call.i.i.i = tail call noundef nonnull align 8 dereferenceable(8) ptr @_ZStlsISt11char_traitsIcEERSt13basic_ostreamIcT_ES5_PKc(ptr noundef nonnull align 8 dereferenceable(8) @_ZSt4cout, ptr noundef nonnull @.str.61)
  %0 = load ptr, ptr %__functor, align 8
  %1 = load ptr, ptr %0, align 8
  %_join_counter.i.i.i.i = getelementptr inbounds i8, ptr %1, i64 160
  store atomic i64 0, ptr %_join_counter.i.i.i.i monotonic, align 8
  %_parent.i.i.i.i = getelementptr inbounds i8, ptr %1, i64 56
  %2 = load ptr, ptr %_parent.i.i.i.i, align 8
  %tobool.not.i.i.i.i = icmp eq ptr %2, null
  br i1 %tobool.not.i.i.i.i, label %cond.false.i.i.i.i, label %cond.true.i.i.i.i

cond.true.i.i.i.i:                                ; preds = %entry
  %_join_counter3.i.i.i.i = getelementptr inbounds i8, ptr %2, i64 160
  br label %"_ZSt10__invoke_rIvRZ4mainE3$_1JRN2tf7RuntimeEEENSt9enable_ifIX16is_invocable_r_vIT_T0_DpT1_EES6_E4typeEOS7_DpOS8_.exit"

cond.false.i.i.i.i:                               ; preds = %entry
  %_topology.i.i.i.i = getelementptr inbounds i8, ptr %1, i64 48
  %3 = load ptr, ptr %_topology.i.i.i.i, align 8
  %_join_counter4.i.i.i.i = getelementptr inbounds i8, ptr %3, i64 136
  br label %"_ZSt10__invoke_rIvRZ4mainE3$_1JRN2tf7RuntimeEEENSt9enable_ifIX16is_invocable_r_vIT_T0_DpT1_EES6_E4typeEOS7_DpOS8_.exit"

"_ZSt10__invoke_rIvRZ4mainE3$_1JRN2tf7RuntimeEEENSt9enable_ifIX16is_invocable_r_vIT_T0_DpT1_EES6_E4typeEOS7_DpOS8_.exit": ; preds = %cond.true.i.i.i.i, %cond.false.i.i.i.i
  %cond-lvalue.i.i.i.i = phi ptr [ %_join_counter3.i.i.i.i, %cond.true.i.i.i.i ], [ %_join_counter4.i.i.i.i, %cond.false.i.i.i.i ]
  %4 = atomicrmw add ptr %cond-lvalue.i.i.i.i, i64 1 monotonic, align 8
  %5 = load ptr, ptr %__args, align 8
  %_worker.i.i.i.i = getelementptr inbounds i8, ptr %__args, i64 8
  %6 = load ptr, ptr %_worker.i.i.i.i, align 8
  tail call void @_ZN2tf8Executor9_scheduleERNS_6WorkerEPNS_4NodeE(ptr noundef nonnull align 128 dereferenceable(1344) %5, ptr noundef nonnull align 128 dereferenceable(1032) %6, ptr noundef nonnull %1)
  ret void
}